; ModuleID = '9/38.c'
source_filename = "9/38.c"
target datalayout = "e-m:e-p270:32:32-p271:32:32-p272:64:64-i64:64-f80:128-n8:16:32:64-S128"
target triple = "x86_64-pc-linux-gnu"

@.str = private unnamed_addr constant [3 x i8] c"%d\00", align 1
@.str.1 = private unnamed_addr constant [6 x i8] c"%s %d\00", align 1
@.str.2 = private unnamed_addr constant [4 x i8] c"%s\0A\00", align 1

; Function Attrs: noinline nounwind uwtable
define dso_local i32 @main() #0 {
  %1 = alloca i32, align 4
  %2 = alloca i32, align 4
  %3 = alloca i32, align 4
  %4 = alloca i32, align 4
  %5 = alloca [100 x [100 x i8]], align 16
  %6 = alloca [100 x i32], align 16
  %7 = alloca [100 x [100 x i8]], align 16
  %8 = alloca [100 x [100 x i8]], align 16
  %9 = alloca [100 x i32], align 16
  %10 = alloca i32, align 4
  %11 = alloca i32, align 4
  %12 = alloca [100 x i8], align 16
  %13 = alloca i32, align 4
  store i32 0, i32* %1, align 4
  store i32 0, i32* %10, align 4
  store i32 0, i32* %11, align 4
  %14 = call i32 (i8*, ...) @__isoc99_scanf(i8* getelementptr inbounds ([3 x i8], [3 x i8]* @.str, i64 0, i64 0), i32* %2)
  store i32 0, i32* %3, align 4
  br label %15

15:                                               ; preds = %64, %0
  %16 = load i32, i32* %3, align 4
  %17 = load i32, i32* %2, align 4
  %18 = icmp slt i32 %16, %17
  br i1 %18, label %19, label %67

19:                                               ; preds = %15
  %20 = load i32, i32* %3, align 4
  %21 = sext i32 %20 to i64
  %22 = getelementptr inbounds [100 x [100 x i8]], [100 x [100 x i8]]* %5, i64 0, i64 %21
  %23 = load i32, i32* %3, align 4
  %24 = sext i32 %23 to i64
  %25 = getelementptr inbounds [100 x i32], [100 x i32]* %6, i64 0, i64 %24
  %26 = call i32 (i8*, ...) @__isoc99_scanf(i8* getelementptr inbounds ([6 x i8], [6 x i8]* @.str.1, i64 0, i64 0), [100 x i8]* %22, i32* %25)
  %27 = load i32, i32* %3, align 4
  %28 = sext i32 %27 to i64
  %29 = getelementptr inbounds [100 x i32], [100 x i32]* %6, i64 0, i64 %28
  %30 = load i32, i32* %29, align 4
  %31 = icmp sge i32 %30, 60
  br i1 %31, label %32, label %51

32:                                               ; preds = %19
  %33 = load i32, i32* %10, align 4
  %34 = sext i32 %33 to i64
  %35 = getelementptr inbounds [100 x [100 x i8]], [100 x [100 x i8]]* %7, i64 0, i64 %34
  %36 = getelementptr inbounds [100 x i8], [100 x i8]* %35, i64 0, i64 0
  %37 = load i32, i32* %3, align 4
  %38 = sext i32 %37 to i64
  %39 = getelementptr inbounds [100 x [100 x i8]], [100 x [100 x i8]]* %5, i64 0, i64 %38
  %40 = getelementptr inbounds [100 x i8], [100 x i8]* %39, i64 0, i64 0
  %41 = call i8* @strcpy(i8* %36, i8* %40) #3
  %42 = load i32, i32* %3, align 4
  %43 = sext i32 %42 to i64
  %44 = getelementptr inbounds [100 x i32], [100 x i32]* %6, i64 0, i64 %43
  %45 = load i32, i32* %44, align 4
  %46 = load i32, i32* %10, align 4
  %47 = sext i32 %46 to i64
  %48 = getelementptr inbounds [100 x i32], [100 x i32]* %9, i64 0, i64 %47
  store i32 %45, i32* %48, align 4
  %49 = load i32, i32* %10, align 4
  %50 = add nsw i32 %49, 1
  store i32 %50, i32* %10, align 4
  br label %63

51:                                               ; preds = %19
  %52 = load i32, i32* %11, align 4
  %53 = sext i32 %52 to i64
  %54 = getelementptr inbounds [100 x [100 x i8]], [100 x [100 x i8]]* %8, i64 0, i64 %53
  %55 = getelementptr inbounds [100 x i8], [100 x i8]* %54, i64 0, i64 0
  %56 = load i32, i32* %3, align 4
  %57 = sext i32 %56 to i64
  %58 = getelementptr inbounds [100 x [100 x i8]], [100 x [100 x i8]]* %5, i64 0, i64 %57
  %59 = getelementptr inbounds [100 x i8], [100 x i8]* %58, i64 0, i64 0
  %60 = call i8* @strcpy(i8* %55, i8* %59) #3
  %61 = load i32, i32* %11, align 4
  %62 = add nsw i32 %61, 1
  store i32 %62, i32* %11, align 4
  br label %63

63:                                               ; preds = %51, %32
  br label %64

64:                                               ; preds = %63
  %65 = load i32, i32* %3, align 4
  %66 = add nsw i32 %65, 1
  store i32 %66, i32* %3, align 4
  br label %15

67:                                               ; preds = %15
  store i32 1, i32* %3, align 4
  br label %68

68:                                               ; preds = %136, %67
  %69 = load i32, i32* %3, align 4
  %70 = load i32, i32* %10, align 4
  %71 = icmp sle i32 %69, %70
  br i1 %71, label %72, label %139

72:                                               ; preds = %68
  store i32 0, i32* %4, align 4
  br label %73

73:                                               ; preds = %132, %72
  %74 = load i32, i32* %4, align 4
  %75 = load i32, i32* %10, align 4
  %76 = load i32, i32* %3, align 4
  %77 = sub nsw i32 %75, %76
  %78 = icmp slt i32 %74, %77
  br i1 %78, label %79, label %135

79:                                               ; preds = %73
  %80 = load i32, i32* %4, align 4
  %81 = sext i32 %80 to i64
  %82 = getelementptr inbounds [100 x i32], [100 x i32]* %9, i64 0, i64 %81
  %83 = load i32, i32* %82, align 4
  %84 = load i32, i32* %4, align 4
  %85 = add nsw i32 %84, 1
  %86 = sext i32 %85 to i64
  %87 = getelementptr inbounds [100 x i32], [100 x i32]* %9, i64 0, i64 %86
  %88 = load i32, i32* %87, align 4
  %89 = icmp slt i32 %83, %88
  br i1 %89, label %90, label %131

90:                                               ; preds = %79
  %91 = load i32, i32* %4, align 4
  %92 = add nsw i32 %91, 1
  %93 = sext i32 %92 to i64
  %94 = getelementptr inbounds [100 x i32], [100 x i32]* %9, i64 0, i64 %93
  %95 = load i32, i32* %94, align 4
  store i32 %95, i32* %13, align 4
  %96 = load i32, i32* %4, align 4
  %97 = sext i32 %96 to i64
  %98 = getelementptr inbounds [100 x i32], [100 x i32]* %9, i64 0, i64 %97
  %99 = load i32, i32* %98, align 4
  %100 = load i32, i32* %4, align 4
  %101 = add nsw i32 %100, 1
  %102 = sext i32 %101 to i64
  %103 = getelementptr inbounds [100 x i32], [100 x i32]* %9, i64 0, i64 %102
  store i32 %99, i32* %103, align 4
  %104 = load i32, i32* %13, align 4
  %105 = load i32, i32* %4, align 4
  %106 = sext i32 %105 to i64
  %107 = getelementptr inbounds [100 x i32], [100 x i32]* %9, i64 0, i64 %106
  store i32 %104, i32* %107, align 4
  %108 = getelementptr inbounds [100 x i8], [100 x i8]* %12, i64 0, i64 0
  %109 = load i32, i32* %4, align 4
  %110 = add nsw i32 %109, 1
  %111 = sext i32 %110 to i64
  %112 = getelementptr inbounds [100 x [100 x i8]], [100 x [100 x i8]]* %7, i64 0, i64 %111
  %113 = getelementptr inbounds [100 x i8], [100 x i8]* %112, i64 0, i64 0
  %114 = call i8* @strcpy(i8* %108, i8* %113) #3
  %115 = load i32, i32* %4, align 4
  %116 = add nsw i32 %115, 1
  %117 = sext i32 %116 to i64
  %118 = getelementptr inbounds [100 x [100 x i8]], [100 x [100 x i8]]* %7, i64 0, i64 %117
  %119 = getelementptr inbounds [100 x i8], [100 x i8]* %118, i64 0, i64 0
  %120 = load i32, i32* %4, align 4
  %121 = sext i32 %120 to i64
  %122 = getelementptr inbounds [100 x [100 x i8]], [100 x [100 x i8]]* %7, i64 0, i64 %121
  %123 = getelementptr inbounds [100 x i8], [100 x i8]* %122, i64 0, i64 0
  %124 = call i8* @strcpy(i8* %119, i8* %123) #3
  %125 = load i32, i32* %4, align 4
  %126 = sext i32 %125 to i64
  %127 = getelementptr inbounds [100 x [100 x i8]], [100 x [100 x i8]]* %7, i64 0, i64 %126
  %128 = getelementptr inbounds [100 x i8], [100 x i8]* %127, i64 0, i64 0
  %129 = getelementptr inbounds [100 x i8], [100 x i8]* %12, i64 0, i64 0
  %130 = call i8* @strcpy(i8* %128, i8* %129) #3
  br label %131

131:                                              ; preds = %90, %79
  br label %132

132:                                              ; preds = %131
  %133 = load i32, i32* %4, align 4
  %134 = add nsw i32 %133, 1
  store i32 %134, i32* %4, align 4
  br label %73

135:                                              ; preds = %73
  br label %136

136:                                              ; preds = %135
  %137 = load i32, i32* %3, align 4
  %138 = add nsw i32 %137, 1
  store i32 %138, i32* %3, align 4
  br label %68

139:                                              ; preds = %68
  store i32 0, i32* %3, align 4
  br label %140

140:                                              ; preds = %150, %139
  %141 = load i32, i32* %3, align 4
  %142 = load i32, i32* %10, align 4
  %143 = icmp slt i32 %141, %142
  br i1 %143, label %144, label %153

144:                                              ; preds = %140
  %145 = load i32, i32* %3, align 4
  %146 = sext i32 %145 to i64
  %147 = getelementptr inbounds [100 x [100 x i8]], [100 x [100 x i8]]* %7, i64 0, i64 %146
  %148 = getelementptr inbounds [100 x i8], [100 x i8]* %147, i64 0, i64 0
  %149 = call i32 (i8*, ...) @printf(i8* getelementptr inbounds ([4 x i8], [4 x i8]* @.str.2, i64 0, i64 0), i8* %148)
  br label %150

150:                                              ; preds = %144
  %151 = load i32, i32* %3, align 4
  %152 = add nsw i32 %151, 1
  store i32 %152, i32* %3, align 4
  br label %140

153:                                              ; preds = %140
  store i32 0, i32* %3, align 4
  br label %154

154:                                              ; preds = %164, %153
  %155 = load i32, i32* %3, align 4
  %156 = load i32, i32* %11, align 4
  %157 = icmp slt i32 %155, %156
  br i1 %157, label %158, label %167

158:                                              ; preds = %154
  %159 = load i32, i32* %3, align 4
  %160 = sext i32 %159 to i64
  %161 = getelementptr inbounds [100 x [100 x i8]], [100 x [100 x i8]]* %8, i64 0, i64 %160
  %162 = getelementptr inbounds [100 x i8], [100 x i8]* %161, i64 0, i64 0
  %163 = call i32 (i8*, ...) @printf(i8* getelementptr inbounds ([4 x i8], [4 x i8]* @.str.2, i64 0, i64 0), i8* %162)
  br label %164

164:                                              ; preds = %158
  %165 = load i32, i32* %3, align 4
  %166 = add nsw i32 %165, 1
  store i32 %166, i32* %3, align 4
  br label %154

167:                                              ; preds = %154
  ret i32 0
}

declare dso_local i32 @__isoc99_scanf(i8*, ...) #1

; Function Attrs: nounwind
declare dso_local i8* @strcpy(i8*, i8*) #2

declare dso_local i32 @printf(i8*, ...) #1


!llvm.module.flags = !{!0}
!llvm.ident = !{!1}

!0 = !{i32 1, !"wchar_size", i32 4}
!1 = !{!"clang version 10.0.0-4ubuntu1 "}
